target datalayout = "e-m:e-p270:32:32-p271:32:32-p272:64:64-i64:64-i128:128-f80:128-n8:16:32:64-S128"
target triple = "x86_64-pc-linux-gnu"

%struct._zend_compiler_globals = type { %struct._zend_stack, ptr, ptr, i32, ptr, ptr, ptr, ptr, i8, i8, i8, i8, i8, %struct._zend_llist, ptr, i8, i8, i8, i8, ptr, i32, i32, %struct._zend_oparray_context, %struct._zend_file_context, ptr, %struct._zend_array, ptr, i64, i8, i8, i8, ptr, ptr, %struct._zend_stack, ptr, i32, ptr, ptr, i64, i64, ptr, ptr, ptr, ptr, i32, %struct._zend_stack }
%struct._zend_llist = type { ptr, ptr, i64, i64, ptr, i8, ptr }
%struct._zend_oparray_context = type { i32, i32, i32, i32, i32, i32, i32, ptr, ptr, i8 }
%struct._zend_file_context = type { %struct._zend_declarables, ptr, i8, i8, ptr, ptr, ptr, %struct._zend_array }
%struct._zend_declarables = type { i64 }
%struct._zend_array = type { %struct._zend_refcounted_h, %union.anon.0, i32, %union.anon.1, i32, i32, i32, i32, i64, ptr }
%struct._zend_refcounted_h = type { i32, %union.anon }
%union.anon = type { i32 }
%union.anon.0 = type { i32 }
%union.anon.1 = type { ptr }
%struct._zend_stack = type { i32, i32, i32, ptr }
%struct._zval_struct = type { %union._zend_value, %union.anon.3, %union.anon.6 }
%union._zend_value = type { i64 }
%union.anon.3 = type { i32 }
%union.anon.6 = type { i32 }
%struct._zend_auto_global = type { ptr, ptr, i8, i8 }
%struct._Bucket = type { %struct._zval_struct, i64, ptr }

@compiler_globals = global %struct._zend_compiler_globals zeroinitializer, align 8

; Function Attrs: nounwind uwtable
define void @zend_activate_auto_globals() #0 {
  %1 = alloca ptr, align 8
  %2 = alloca ptr, align 8
  %3 = alloca ptr, align 8
  %4 = alloca ptr, align 8
  %5 = alloca ptr, align 8
  %6 = alloca ptr, align 8
  br label %7

7:                                                ; preds = %0
  %8 = load ptr, ptr getelementptr inbounds (%struct._zend_compiler_globals, ptr @compiler_globals, i32 0, i32 7), align 8
  store ptr %8, ptr %3, align 8
  %9 = load ptr, ptr %3, align 8
  %10 = getelementptr inbounds %struct._zend_array, ptr %9, i32 0, i32 3
  %11 = load ptr, ptr %10, align 8
  %12 = getelementptr inbounds %struct._Bucket, ptr %11, i64 0
  store ptr %12, ptr %4, align 8
  %13 = load ptr, ptr %3, align 8
  %14 = getelementptr inbounds %struct._zend_array, ptr %13, i32 0, i32 3
  %15 = load ptr, ptr %14, align 8
  %16 = load ptr, ptr %3, align 8
  %17 = getelementptr inbounds %struct._zend_array, ptr %16, i32 0, i32 4
  %18 = load i32, ptr %17, align 8
  %19 = zext i32 %18 to i64
  %20 = getelementptr inbounds %struct._Bucket, ptr %15, i64 %19
  store ptr %20, ptr %5, align 8
  %21 = load ptr, ptr %3, align 8
  %22 = getelementptr inbounds %struct._zend_array, ptr %21, i32 0, i32 1
  %23 = load i32, ptr %22, align 8
  %24 = and i32 %23, 4
  %25 = icmp ne i32 %24, 0
  %26 = xor i1 %25, true
  call void @llvm.assume(i1 %26)
  br label %27

27:                                               ; preds = %78, %7
  %28 = load ptr, ptr %4, align 8
  %29 = load ptr, ptr %5, align 8
  %30 = icmp ne ptr %28, %29
  br i1 %30, label %31, label %81

31:                                               ; preds = %27
  %32 = load ptr, ptr %4, align 8
  %33 = getelementptr inbounds %struct._Bucket, ptr %32, i32 0, i32 0
  store ptr %33, ptr %6, align 8
  %34 = load ptr, ptr %6, align 8
  store ptr %34, ptr %1, align 8
  %35 = load ptr, ptr %1, align 8
  %36 = getelementptr inbounds %struct._zval_struct, ptr %35, i32 0, i32 1
  %37 = load i8, ptr %36, align 8
  %38 = zext i8 %37 to i32
  %39 = icmp eq i32 %38, 0
  %40 = xor i1 %39, true
  %41 = xor i1 %40, true
  %42 = zext i1 %41 to i32
  %43 = sext i32 %42 to i64
  %44 = icmp ne i64 %43, 0
  br i1 %44, label %45, label %46

45:                                               ; preds = %31
  br label %78

46:                                               ; preds = %31
  %47 = load ptr, ptr %6, align 8
  %48 = getelementptr inbounds %struct._zval_struct, ptr %47, i32 0, i32 0
  %49 = load ptr, ptr %48, align 8
  store ptr %49, ptr %2, align 8
  %50 = load ptr, ptr %2, align 8
  %51 = getelementptr inbounds %struct._zend_auto_global, ptr %50, i32 0, i32 2
  %52 = load i8, ptr %51, align 8
  %53 = trunc i8 %52 to i1
  br i1 %53, label %54, label %57

54:                                               ; preds = %46
  %55 = load ptr, ptr %2, align 8
  %56 = getelementptr inbounds %struct._zend_auto_global, ptr %55, i32 0, i32 3
  store i8 1, ptr %56, align 1
  br label %77

57:                                               ; preds = %46
  %58 = load ptr, ptr %2, align 8
  %59 = getelementptr inbounds %struct._zend_auto_global, ptr %58, i32 0, i32 1
  %60 = load ptr, ptr %59, align 8
  %61 = icmp ne ptr %60, null
  br i1 %61, label %62, label %73

62:                                               ; preds = %57
  %63 = load ptr, ptr %2, align 8
  %64 = getelementptr inbounds %struct._zend_auto_global, ptr %63, i32 0, i32 1
  %65 = load ptr, ptr %64, align 8
  %66 = load ptr, ptr %2, align 8
  %67 = getelementptr inbounds %struct._zend_auto_global, ptr %66, i32 0, i32 0
  %68 = load ptr, ptr %67, align 8
  %69 = call zeroext i1 %65(ptr noundef %68)
  %70 = load ptr, ptr %2, align 8
  %71 = getelementptr inbounds %struct._zend_auto_global, ptr %70, i32 0, i32 3
  %72 = zext i1 %69 to i8
  store i8 %72, ptr %71, align 1
  br label %76

73:                                               ; preds = %57
  %74 = load ptr, ptr %2, align 8
  %75 = getelementptr inbounds %struct._zend_auto_global, ptr %74, i32 0, i32 3
  store i8 0, ptr %75, align 1
  br label %76

76:                                               ; preds = %73, %62
  br label %77

77:                                               ; preds = %76, %54
  br label %78

78:                                               ; preds = %77, %45
  %79 = load ptr, ptr %4, align 8
  %80 = getelementptr inbounds %struct._Bucket, ptr %79, i32 1
  store ptr %80, ptr %4, align 8
  br label %27

81:                                               ; preds = %27
  br label %82

82:                                               ; preds = %81
  ret void
}