; Function Attrs: nounwind uwtable
define void @zend_activate_auto_globals() local_unnamed_addr #0 {
  %1 = load ptr, ptr getelementptr inbounds (%struct._zend_compiler_globals, ptr @compiler_globals, i64 0, i32 7), align 8
  %2 = getelementptr inbounds i8, ptr %1, i64 16
  %3 = load ptr, ptr %2, align 8
  %4 = getelementptr inbounds i8, ptr %1, i64 24
  %5 = load i32, ptr %4, align 8
  %6 = zext i32 %5 to i64
  %7 = getelementptr inbounds %struct._Bucket, ptr %3, i64 %6
  %8 = getelementptr inbounds i8, ptr %1, i64 8
  %9 = load i32, ptr %8, align 8
  %10 = and i32 %9, 4
  %.not = icmp eq i32 %10, 0
  tail call void @llvm.assume(i1 %.not)
  %.not1922 = icmp eq i32 %5, 0
  br i1 %.not1922, label %._crit_edge, label %.lr.ph

.lr.ph:                                           ; preds = %0, %31
  %.023 = phi ptr [ %32, %31 ], [ %3, %0 ]
  %11 = getelementptr inbounds i8, ptr %.023, i64 8
  %12 = load i8, ptr %11, align 8
  %13 = icmp eq i8 %12, 0
  br i1 %13, label %31, label %14

14:                                               ; preds = %.lr.ph
  %15 = load ptr, ptr %.023, align 8
  %16 = getelementptr inbounds i8, ptr %15, i64 16
  %17 = load i8, ptr %16, align 8
  %18 = and i8 %17, 1
  %.not20 = icmp eq i8 %18, 0
  br i1 %.not20, label %21, label %19

19:                                               ; preds = %14
  %20 = getelementptr inbounds i8, ptr %15, i64 17
  store i8 1, ptr %20, align 1
  br label %31

21:                                               ; preds = %14
  %22 = getelementptr inbounds i8, ptr %15, i64 8
  %23 = load ptr, ptr %22, align 8
  %.not21 = icmp eq ptr %23, null
  br i1 %.not21, label %29, label %24

24:                                               ; preds = %21
  %25 = load ptr, ptr %15, align 8
  %26 = tail call zeroext i1 %23(ptr noundef %25) #30
  %27 = getelementptr inbounds i8, ptr %15, i64 17
  %28 = zext i1 %26 to i8
  store i8 %28, ptr %27, align 1
  br label %31

29:                                               ; preds = %21
  %30 = getelementptr inbounds i8, ptr %15, i64 17
  store i8 0, ptr %30, align 1
  br label %31

31:                                               ; preds = %19, %29, %24, %.lr.ph
  %32 = getelementptr inbounds i8, ptr %.023, i64 32
  %.not19 = icmp eq ptr %32, %7
  br i1 %.not19, label %._crit_edge, label %.lr.ph

._crit_edge:                                      ; preds = %31, %0
  ret void
}